; Function Attrs: mustprogress nounwind uwtable
define hidden void @_ZN14PhaseIdealLoop52clone_loop_predication_predicates_to_unswitched_loopEP13IdealLoopTreeRK9Node_ListPK14PredicateBlockN14Deoptimization11DeoptReasonERP10IfProjNodeSC_(ptr noundef nonnull align 8 dereferenceable(237) %0, ptr noundef %1, ptr nocapture noundef nonnull readonly align 8 dereferenceable(28) %2, ptr nocapture noundef readonly %3, i32 noundef %4, ptr nocapture noundef nonnull align 8 dereferenceable(8) %5, ptr nocapture noundef nonnull align 8 dereferenceable(8) %6) local_unnamed_addr #0 align 2 {
  %8 = getelementptr inbounds i8, ptr %3, i64 16
  %9 = load ptr, ptr %8, align 8
  %.not = icmp eq ptr %9, null
  br i1 %.not, label %19, label %10

10:                                               ; preds = %7
  %11 = getelementptr inbounds i8, ptr %3, i64 8
  %12 = load ptr, ptr %11, align 8
  %13 = load ptr, ptr %5, align 8
  %14 = tail call noundef ptr @_ZN14PhaseIdealLoop27create_new_if_for_predicateEP10IfTrueNodeP4NodeN14Deoptimization11DeoptReasonEib(ptr noundef nonnull align 8 dereferenceable(237) %0, ptr noundef readonly %12, ptr noundef %13, i32 noundef %4, i32 noundef 272, i1 noundef zeroext false)
  store ptr %14, ptr %5, align 8
  %15 = load ptr, ptr %6, align 8
  %16 = tail call noundef ptr @_ZN14PhaseIdealLoop27create_new_if_for_predicateEP10IfTrueNodeP4NodeN14Deoptimization11DeoptReasonEib(ptr noundef nonnull align 8 dereferenceable(237) %0, ptr noundef readonly %12, ptr noundef %15, i32 noundef %4, i32 noundef 272, i1 noundef zeroext true)
  store ptr %16, ptr %6, align 8
  %17 = load ptr, ptr %11, align 8
  %18 = load ptr, ptr %5, align 8
  tail call void @_ZN14PhaseIdealLoop45clone_assertion_predicates_to_unswitched_loopEP13IdealLoopTreeRK9Node_ListN14Deoptimization11DeoptReasonEP10IfProjNodeP10IfTrueNodeSA_(ptr noundef nonnull align 8 dereferenceable(237) %0, ptr noundef %1, ptr noundef nonnull align 8 dereferenceable(28) %2, i32 noundef %4, ptr noundef %17, ptr noundef %18, ptr noundef %16)
  br label %19

19:                                               ; preds = %10, %7
  ret void
}